; Function Attrs: mustprogress uwtable
define i64 @_ZN6duckdb31ParquetTimestampUsToTimestampNsERKl(ptr noundef nonnull readonly align 8 captures(none) dereferenceable(8) %0) local_unnamed_addr #1 {
  %2 = load i64, ptr %0, align 8, !tbaa !7
  switch i64 %2, label %3 [
    i64 -9223372036854775807, label %5
    i64 9223372036854775807, label %5
  ]

3:                                                ; preds = %1
  %4 = tail call i64 @_ZN6duckdb9Timestamp26TimestampNsFromEpochMicrosEl(i64 noundef %2)
  br label %5

5:                                                ; preds = %1, %1, %3
  %.sroa.03.0 = phi i64 [ %4, %3 ], [ %2, %1 ], [ %2, %1 ]
  ret i64 %.sroa.03.0
}